ccollections
defaultdict
p0
(c__builtin__
int
p1
tp2
Rp3
S'TLS_ECDHE_ECDSA_WITH_AES_256_CBC_SHA384'
p4
I12
sS'TLS_RSA_WITH_3DES_EDE_CBC_SHA'
p5
I635
sS'TLS_ECDH_RSA_WITH_AES_128_CBC_SHA256'
p6
I1
sS'TLS_ECDH_anon_WITH_AES_128_CBC_SHA'
p7
I2
sS'TLS_RSA_EXPORT_WITH_DES40_CBC_SHA'
p8
I1
sS'TLS_DH_anon_WITH_AES_256_CBC_SHA'
p9
I1
sS'TLS_ECDHE_RSA_WITH_AES_128_CBC_SHA256'
p10
I661
sS'TLS_KRB5_EXPORT_WITH_RC4_40_SHA'
p11
I1
sS'TLS_DHE_RSA_WITH_3DES_EDE_CBC_SHA'
p12
I163
sS'TLS_KRB5_EXPORT_WITH_RC2_CBC_40_SHA'
p13
I1
sS'TLS_ECDHE_RSA_WITH_CAMELLIA_128_CBC_SHA256'
p14
I1
sS'TLS_ECDH_RSA_WITH_AES_128_GCM_SHA256'
p15
I1
sS'TLS_DHE_RSA_WITH_AES_128_CBC_SHA256'
p16
I356
sS'TLS_RSA_WITH_AES_128_CCM_8'
p17
I17
sS'TLS_RSA_WITH_CAMELLIA_128_CBC_SHA'
p18
I329
sS'TLS_ECDHE_RSA_WITH_RC4_128_SHA'
p19
I50
sS'TLS_ECDHE_ECDSA_WITH_AES_256_CBC_SHA'
p20
I16
sS'TLS_DHE_RSA_WITH_SEED_CBC_SHA'
p21
I45
sS'TLS_RSA_WITH_CAMELLIA_128_CBC_SHA256'
p22
I10
sS'TLS_RSA_WITH_AES_256_CBC_SHA256'
p23
I927
sS'TLS_RSA_WITH_IDEA_CBC_SHA'
p24
I30
sS'TLS_GOSTR341001_WITH_28147_CNT_IMIT'
p25
I1
sS'TLS_ECDH_anon_WITH_3DES_EDE_CBC_SHA'
p26
I3
sS'TLS_ECDH_anon_WITH_RC4_128_SHA'
p27
I2
sS'TLS_RSA_EXPORT_WITH_RC2_CBC_40_MD5'
p28
I1
sS'TLS_ECDH_anon_WITH_AES_256_CBC_SHA'
p29
I4
sS'TLS_RSA_WITH_NULL_MD5'
p30
I1
sS'TLS_DHE_RSA_WITH_AES_128_CCM'
p31
I8
sS'TLSv1.2'
p32
I1253
sS'TLS_DHE_RSA_WITH_AES_128_CCM_8'
p33
I8
sS'TLS_DHE_RSA_WITH_CAMELLIA_256_CBC_SHA'
p34
I234
sS'TLS_KRB5_WITH_RC4_128_SHA'
p35
I1
sS'TLS_RSA_WITH_AES_256_CCM_8'
p36
I14
sS'TLS_ECDH_RSA_WITH_AES_256_CBC_SHA'
p37
I1
sS'TLS_RSA_WITH_AES_256_GCM_SHA384'
p38
I985
sS'TLS_ECDH_RSA_WITH_AES_256_CBC_SHA384'
p39
I1
sS'TLS_RSA_WITH_DES_CBC_SHA'
p40
I1
sS'TLS_DHE_RSA_WITH_AES_256_CCM'
p41
I10
sS'TLS_RSA_WITH_RC4_128_SHA'
p42
I87
sS'TLS_DHE_RSA_WITH_AES_128_CBC_SHA'
p43
I367
sS'TLS_RSA_EXPORT_WITH_RC4_40_MD5'
p44
I2
sS'TLS_ECDHE_RSA_WITH_AES_128_CBC_SHA'
p45
I664
sS'TLS_ECDHE_RSA_WITH_CAMELLIA_256_CBC_SHA384'
p46
I1
sS'TLS_KRB5_WITH_3DES_EDE_CBC_SHA'
p47
I2
sS'TLS_ECDHE_ECDSA_WITH_AES_256_GCM_SHA384'
p48
I21
sS'TLS_DHE_RSA_WITH_AES_256_CBC_SHA256'
p49
I366
sS'TLS_DHE_RSA_WITH_AES_128_GCM_SHA256'
p50
I376
sS'TLS_RSA_WITH_SEED_CBC_SHA'
p51
I57
sS'TLS_DHE_RSA_WITH_CAMELLIA_256_CBC_SHA256'
p52
I8
sS'TLS_ECDHE_RSA_WITH_AES_128_GCM_SHA256'
p53
I658
sS'TLS_ECDHE_ECDSA_WITH_RC4_128_SHA'
p54
I4
sS'TLS_RSA_WITH_AES_128_CCM'
p55
I17
sS'TLS_ECDHE_RSA_WITH_AES_256_CBC_SHA384'
p56
I646
sS'TLS_RSA_WITH_NULL_SHA'
p57
I1
sS'TLS_ECDHE_RSA_WITH_3DES_EDE_CBC_SHA'
p58
I263
sS'TLS_ECDHE_ECDSA_WITH_AES_128_CBC_SHA256'
p59
I18
sS'TLS_RSA_WITH_AES_256_CCM'
p60
I14
sS'TLS_DHE_RSA_WITH_DES_CBC_SHA'
p61
I1
sS'TLS_ECDH_RSA_WITH_AES_128_CBC_SHA'
p62
I1
sS'TLS_RSA_WITH_AES_256_CBC_SHA'
p63
I1126
sS'TLS_DHE_RSA_WITH_AES_256_GCM_SHA384'
p64
I373
sS'TLS_RSA_WITH_AES_128_CBC_SHA256'
p65
I957
sS'TLS_ECDHE_ECDSA_WITH_3DES_EDE_CBC_SHA'
p66
I7
sS'TLS_ECDHE_RSA_WITH_AES_256_GCM_SHA384'
p67
I636
sS'TLS_RSA_WITH_CAMELLIA_256_CBC_SHA'
p68
I331
sS'TLS_DHE_RSA_WITH_AES_256_CBC_SHA'
p69
I373
sS'TLS_DH_anon_WITH_AES_256_CBC_SHA256'
p70
I1
sS'TLS_ECDHE_RSA_WITH_AES_256_CBC_SHA'
p71
I652
sS'TLS_ECDHE_ECDSA_WITH_AES_128_GCM_SHA256'
p72
I22
sS'TLS_DHE_RSA_WITH_CAMELLIA_128_CBC_SHA'
p73
I231
sS'TLS_RSA_WITH_NULL_SHA256'
p74
I1
sS'TLS_DH_anon_WITH_AES_256_GCM_SHA384'
p75
I1
sS'TLS_RSA_WITH_AES_128_GCM_SHA256'
p76
I1093
sS'TLS_DHE_RSA_WITH_CAMELLIA_128_CBC_SHA256'
p77
I8
sS'TLS_KRB5_WITH_IDEA_CBC_SHA'
p78
I1
sS'TLS_RSA_WITH_CAMELLIA_256_CBC_SHA256'
p79
I10
sS'TLS_RSA_WITH_RC4_128_MD5'
p80
I42
sS'TLS_ECDHE_ECDSA_WITH_AES_128_CBC_SHA'
p81
I17
sS'TLS_DHE_RSA_WITH_AES_256_CCM_8'
p82
I10
sS'TLS_RSA_WITH_AES_128_CBC_SHA'
p83
I1173
sS'TLS_ECDH_RSA_WITH_AES_256_GCM_SHA384'
p84
I1
s.